; ModuleID = '57/434.c'
source_filename = "57/434.c"
target datalayout = "e-m:e-p270:32:32-p271:32:32-p272:64:64-i64:64-f80:128-n8:16:32:64-S128"
target triple = "x86_64-pc-linux-gnu"

@.str = private unnamed_addr constant [3 x i8] c"%d\00", align 1
@.str.1 = private unnamed_addr constant [3 x i8] c"%s\00", align 1
@.str.2 = private unnamed_addr constant [3 x i8] c"%c\00", align 1
@.str.3 = private unnamed_addr constant [2 x i8] c"\0A\00", align 1

; Function Attrs: noinline nounwind uwtable
define dso_local i32 @main() #0 {
  %1 = alloca i32, align 4
  %2 = alloca i32, align 4
  %3 = alloca i32, align 4
  %4 = alloca i32, align 4
  %5 = alloca i32, align 4
  %6 = alloca [50 x [32 x i8]], align 16
  store i32 0, i32* %1, align 4
  store i32 0, i32* %4, align 4
  %7 = call i32 (i8*, ...) @__isoc99_scanf(i8* getelementptr inbounds ([3 x i8], [3 x i8]* @.str, i64 0, i64 0), i32* %2)
  store i32 0, i32* %3, align 4
  br label %8

8:                                                ; preds = %18, %0
  %9 = load i32, i32* %3, align 4
  %10 = load i32, i32* %2, align 4
  %11 = icmp slt i32 %9, %10
  br i1 %11, label %12, label %21

12:                                               ; preds = %8
  %13 = load i32, i32* %3, align 4
  %14 = sext i32 %13 to i64
  %15 = getelementptr inbounds [50 x [32 x i8]], [50 x [32 x i8]]* %6, i64 0, i64 %14
  %16 = getelementptr inbounds [32 x i8], [32 x i8]* %15, i64 0, i64 0
  %17 = call i32 (i8*, ...) @__isoc99_scanf(i8* getelementptr inbounds ([3 x i8], [3 x i8]* @.str.1, i64 0, i64 0), i8* %16)
  br label %18

18:                                               ; preds = %12
  %19 = load i32, i32* %3, align 4
  %20 = add nsw i32 %19, 1
  store i32 %20, i32* %3, align 4
  br label %8

21:                                               ; preds = %8
  store i32 0, i32* %3, align 4
  br label %22

22:                                               ; preds = %58, %21
  %23 = load i32, i32* %3, align 4
  %24 = load i32, i32* %2, align 4
  %25 = icmp slt i32 %23, %24
  br i1 %25, label %26, label %61

26:                                               ; preds = %22
  %27 = load i32, i32* %3, align 4
  %28 = sext i32 %27 to i64
  %29 = getelementptr inbounds [50 x [32 x i8]], [50 x [32 x i8]]* %6, i64 0, i64 %28
  %30 = getelementptr inbounds [32 x i8], [32 x i8]* %29, i64 0, i64 0
  %31 = call i64 @strlen(i8* %30) #3
  %32 = trunc i64 %31 to i32
  store i32 %32, i32* %4, align 4
  %33 = load i32, i32* %3, align 4
  %34 = sext i32 %33 to i64
  %35 = getelementptr inbounds [50 x [32 x i8]], [50 x [32 x i8]]* %6, i64 0, i64 %34
  %36 = getelementptr inbounds [32 x i8], [32 x i8]* %35, i64 0, i64 0
  %37 = load i32, i32* %4, align 4
  %38 = call i32 @change(i8* %36, i32 %37)
  store i32 %38, i32* %4, align 4
  store i32 0, i32* %5, align 4
  br label %39

39:                                               ; preds = %53, %26
  %40 = load i32, i32* %5, align 4
  %41 = load i32, i32* %4, align 4
  %42 = icmp slt i32 %40, %41
  br i1 %42, label %43, label %56

43:                                               ; preds = %39
  %44 = load i32, i32* %3, align 4
  %45 = sext i32 %44 to i64
  %46 = getelementptr inbounds [50 x [32 x i8]], [50 x [32 x i8]]* %6, i64 0, i64 %45
  %47 = load i32, i32* %5, align 4
  %48 = sext i32 %47 to i64
  %49 = getelementptr inbounds [32 x i8], [32 x i8]* %46, i64 0, i64 %48
  %50 = load i8, i8* %49, align 1
  %51 = sext i8 %50 to i32
  %52 = call i32 (i8*, ...) @printf(i8* getelementptr inbounds ([3 x i8], [3 x i8]* @.str.2, i64 0, i64 0), i32 %51)
  br label %53

53:                                               ; preds = %43
  %54 = load i32, i32* %5, align 4
  %55 = add nsw i32 %54, 1
  store i32 %55, i32* %5, align 4
  br label %39

56:                                               ; preds = %39
  %57 = call i32 (i8*, ...) @printf(i8* getelementptr inbounds ([2 x i8], [2 x i8]* @.str.3, i64 0, i64 0))
  br label %58

58:                                               ; preds = %56
  %59 = load i32, i32* %3, align 4
  %60 = add nsw i32 %59, 1
  store i32 %60, i32* %3, align 4
  br label %22

61:                                               ; preds = %22
  ret i32 0
}

declare dso_local i32 @__isoc99_scanf(i8*, ...) #1

; Function Attrs: nounwind readonly
declare dso_local i64 @strlen(i8*) #2

; Function Attrs: noinline nounwind uwtable
define dso_local i32 @change(i8* %0, i32 %1) #0 {
  %3 = alloca i8*, align 8
  %4 = alloca i32, align 4
  store i8* %0, i8** %3, align 8
  store i32 %1, i32* %4, align 4
  %5 = load i8*, i8** %3, align 8
  %6 = load i32, i32* %4, align 4
  %7 = sub nsw i32 %6, 1
  %8 = sext i32 %7 to i64
  %9 = getelementptr inbounds i8, i8* %5, i64 %8
  %10 = load i8, i8* %9, align 1
  %11 = sext i8 %10 to i32
  %12 = icmp eq i32 %11, 114
  br i1 %12, label %13, label %25

13:                                               ; preds = %2
  %14 = load i8*, i8** %3, align 8
  %15 = load i32, i32* %4, align 4
  %16 = sub nsw i32 %15, 2
  %17 = sext i32 %16 to i64
  %18 = getelementptr inbounds i8, i8* %14, i64 %17
  %19 = load i8, i8* %18, align 1
  %20 = sext i8 %19 to i32
  %21 = icmp eq i32 %20, 101
  br i1 %21, label %22, label %25

22:                                               ; preds = %13
  %23 = load i32, i32* %4, align 4
  %24 = sub nsw i32 %23, 2
  store i32 %24, i32* %4, align 4
  br label %25

25:                                               ; preds = %22, %13, %2
  %26 = load i8*, i8** %3, align 8
  %27 = load i32, i32* %4, align 4
  %28 = sub nsw i32 %27, 1
  %29 = sext i32 %28 to i64
  %30 = getelementptr inbounds i8, i8* %26, i64 %29
  %31 = load i8, i8* %30, align 1
  %32 = sext i8 %31 to i32
  %33 = icmp eq i32 %32, 121
  br i1 %33, label %34, label %46

34:                                               ; preds = %25
  %35 = load i8*, i8** %3, align 8
  %36 = load i32, i32* %4, align 4
  %37 = sub nsw i32 %36, 2
  %38 = sext i32 %37 to i64
  %39 = getelementptr inbounds i8, i8* %35, i64 %38
  %40 = load i8, i8* %39, align 1
  %41 = sext i8 %40 to i32
  %42 = icmp eq i32 %41, 108
  br i1 %42, label %43, label %46

43:                                               ; preds = %34
  %44 = load i32, i32* %4, align 4
  %45 = sub nsw i32 %44, 2
  store i32 %45, i32* %4, align 4
  br label %46

46:                                               ; preds = %43, %34, %25
  %47 = load i8*, i8** %3, align 8
  %48 = load i32, i32* %4, align 4
  %49 = sub nsw i32 %48, 1
  %50 = sext i32 %49 to i64
  %51 = getelementptr inbounds i8, i8* %47, i64 %50
  %52 = load i8, i8* %51, align 1
  %53 = sext i8 %52 to i32
  %54 = icmp eq i32 %53, 103
  br i1 %54, label %55, label %76

55:                                               ; preds = %46
  %56 = load i8*, i8** %3, align 8
  %57 = load i32, i32* %4, align 4
  %58 = sub nsw i32 %57, 2
  %59 = sext i32 %58 to i64
  %60 = getelementptr inbounds i8, i8* %56, i64 %59
  %61 = load i8, i8* %60, align 1
  %62 = sext i8 %61 to i32
  %63 = icmp eq i32 %62, 110
  br i1 %63, label %64, label %76

64:                                               ; preds = %55
  %65 = load i8*, i8** %3, align 8
  %66 = load i32, i32* %4, align 4
  %67 = sub nsw i32 %66, 3
  %68 = sext i32 %67 to i64
  %69 = getelementptr inbounds i8, i8* %65, i64 %68
  %70 = load i8, i8* %69, align 1
  %71 = sext i8 %70 to i32
  %72 = icmp eq i32 %71, 105
  br i1 %72, label %73, label %76

73:                                               ; preds = %64
  %74 = load i32, i32* %4, align 4
  %75 = sub nsw i32 %74, 3
  store i32 %75, i32* %4, align 4
  br label %76

76:                                               ; preds = %73, %64, %55, %46
  %77 = load i32, i32* %4, align 4
  ret i32 %77
}

declare dso_local i32 @printf(i8*, ...) #1


!llvm.module.flags = !{!0}
!llvm.ident = !{!1}

!0 = !{i32 1, !"wchar_size", i32 4}
!1 = !{!"clang version 10.0.0-4ubuntu1 "}
